target datalayout = "e-m:e-p270:32:32-p271:32:32-p272:64:64-i64:64-i128:128-f80:128-n8:16:32:64-S128"
target triple = "x86_64-pc-linux-gnu"

%struct._php_stream = type { ptr, ptr, %struct._php_stream_filter_chain, %struct._php_stream_filter_chain, ptr, ptr, %struct._zval_struct, i16, [16 x i8], i32, ptr, ptr, ptr, ptr, i64, ptr, i64, i64, i64, i64, ptr }
%struct._php_stream_filter_chain = type { ptr, ptr, ptr }
%struct._zval_struct = type { %union._zend_value, %union.anon, %union.anon.2 }
%union._zend_value = type { i64 }
%union.anon = type { i32 }
%union.anon.2 = type { i32 }
%struct.php_stream_memory_data = type { ptr, i64, i32 }
%struct.php_stream_temp_data = type { ptr, i64, i32, %struct._zval_struct, ptr }

@.str.3 = private unnamed_addr constant [3 x i8] c"rb\00", align 1
@.str.4 = private unnamed_addr constant [4 x i8] c"a+b\00", align 1
@.str.5 = private unnamed_addr constant [4 x i8] c"w+b\00", align 1
@zend_empty_string = external global ptr, align 8

; Function Attrs: nounwind uwtable
define ptr @_php_stream_memory_create(i32 noundef %0) #0 {
  %2 = alloca i32, align 4
  %3 = alloca ptr, align 8
  %4 = alloca ptr, align 8
  store i32 %0, ptr %2, align 4
  %5 = call noalias ptr @_emalloc_24()
  store ptr %5, ptr %3, align 8
  %6 = load ptr, ptr @zend_empty_string, align 8
  %7 = load ptr, ptr %3, align 8
  %8 = getelementptr inbounds %struct.php_stream_memory_data, ptr %7, i32 0, i32 0
  store ptr %6, ptr %8, align 8
  %9 = load ptr, ptr %3, align 8
  %10 = getelementptr inbounds %struct.php_stream_memory_data, ptr %9, i32 0, i32 1
  store i64 0, ptr %10, align 8
  %11 = load i32, ptr %2, align 4
  %12 = load ptr, ptr %3, align 8
  %13 = getelementptr inbounds %struct.php_stream_memory_data, ptr %12, i32 0, i32 2
  store i32 %11, ptr %13, align 8
  %14 = load ptr, ptr %3, align 8
  %15 = load i32, ptr %2, align 4
  %16 = call ptr @_php_stream_mode_to_str(i32 noundef %15)
  %17 = call ptr @_php_stream_alloc(ptr noundef @php_stream_memory_ops, ptr noundef %14, ptr noundef null, ptr noundef %16)
  store ptr %17, ptr %4, align 8
  %18 = load ptr, ptr %4, align 8
  %19 = getelementptr inbounds %struct._php_stream, ptr %18, i32 0, i32 9
  %20 = load i32, ptr %19, align 4
  %21 = or i32 %20, 2
  store i32 %21, ptr %19, align 4
  %22 = load ptr, ptr %4, align 8
  ret ptr %22
}

; Function Attrs: nounwind uwtable
define ptr @_php_stream_mode_to_str(i32 noundef %0) #0 {
  %2 = alloca ptr, align 8
  %3 = alloca i32, align 4
  store i32 %0, ptr %3, align 4
  %4 = load i32, ptr %3, align 4
  %5 = icmp eq i32 %4, 1
  br i1 %5, label %6, label %7

6:                                                ; preds = %1
  store ptr @.str.3, ptr %2, align 8
  br label %13

7:                                                ; preds = %1
  %8 = load i32, ptr %3, align 4
  %9 = icmp eq i32 %8, 4
  br i1 %9, label %10, label %11

10:                                               ; preds = %7
  store ptr @.str.4, ptr %2, align 8
  br label %13

11:                                               ; preds = %7
  br label %12

12:                                               ; preds = %11
  store ptr @.str.5, ptr %2, align 8
  br label %13

13:                                               ; preds = %12, %10, %6
  %14 = load ptr, ptr %2, align 8
  ret ptr %14
}

; Function Attrs: nounwind uwtable
define ptr @_php_stream_temp_create_ex(i32 noundef %0, i64 noundef %1, ptr noundef %2) #0 {
  %4 = alloca i32, align 4
  %5 = alloca i64, align 8
  %6 = alloca ptr, align 8
  %7 = alloca ptr, align 8
  %8 = alloca ptr, align 8
  store i32 %0, ptr %4, align 4
  store i64 %1, ptr %5, align 8
  store ptr %2, ptr %6, align 8
  %9 = call noalias ptr @_ecalloc(i64 noundef 1, i64 noundef 48) #15
  store ptr %9, ptr %7, align 8
  %10 = load i64, ptr %5, align 8
  %11 = load ptr, ptr %7, align 8
  %12 = getelementptr inbounds %struct.php_stream_temp_data, ptr %11, i32 0, i32 1
  store i64 %10, ptr %12, align 8
  %13 = load i32, ptr %4, align 4
  %14 = load ptr, ptr %7, align 8
  %15 = getelementptr inbounds %struct.php_stream_temp_data, ptr %14, i32 0, i32 2
  store i32 %13, ptr %15, align 8
  br label %16

16:                                               ; preds = %3
  %17 = load ptr, ptr %7, align 8
  %18 = getelementptr inbounds %struct.php_stream_temp_data, ptr %17, i32 0, i32 3
  %19 = getelementptr inbounds %struct._zval_struct, ptr %18, i32 0, i32 1
  store i32 0, ptr %19, align 8
  br label %20

20:                                               ; preds = %16
  %21 = load ptr, ptr %6, align 8
  %22 = icmp ne ptr %21, null
  br i1 %22, label %23, label %28

23:                                               ; preds = %20
  %24 = load ptr, ptr %6, align 8
  %25 = call noalias ptr @_estrdup(ptr noundef %24)
  %26 = load ptr, ptr %7, align 8
  %27 = getelementptr inbounds %struct.php_stream_temp_data, ptr %26, i32 0, i32 4
  store ptr %25, ptr %27, align 8
  br label %28

28:                                               ; preds = %23, %20
  %29 = load ptr, ptr %7, align 8
  %30 = load i32, ptr %4, align 4
  %31 = call ptr @_php_stream_mode_to_str(i32 noundef %30)
  %32 = call ptr @_php_stream_alloc(ptr noundef @php_stream_temp_ops, ptr noundef %29, ptr noundef null, ptr noundef %31)
  store ptr %32, ptr %8, align 8
  %33 = load ptr, ptr %8, align 8
  %34 = getelementptr inbounds %struct._php_stream, ptr %33, i32 0, i32 9
  %35 = load i32, ptr %34, align 4
  %36 = or i32 %35, 2
  store i32 %36, ptr %34, align 4
  %37 = load i32, ptr %4, align 4
  %38 = call ptr @_php_stream_memory_create(i32 noundef %37)
  %39 = load ptr, ptr %7, align 8
  %40 = getelementptr inbounds %struct.php_stream_temp_data, ptr %39, i32 0, i32 0
  store ptr %38, ptr %40, align 8
  %41 = load ptr, ptr %8, align 8
  %42 = load ptr, ptr %7, align 8
  %43 = getelementptr inbounds %struct.php_stream_temp_data, ptr %42, i32 0, i32 0
  %44 = load ptr, ptr %43, align 8
  %45 = call ptr @php_stream_encloses(ptr noundef %41, ptr noundef %44)
  %46 = load ptr, ptr %8, align 8
  ret ptr %46
}

; Function Attrs: nounwind uwtable
define internal i32 @php_stream_temp_seek(ptr noundef %0, i64 noundef %1, i32 noundef %2, ptr noundef %3) #0 {
  %5 = alloca i32, align 4
  %6 = alloca ptr, align 8
  %7 = alloca i64, align 8
  %8 = alloca i32, align 4
  %9 = alloca ptr, align 8
  %10 = alloca ptr, align 8
  %11 = alloca i32, align 4
  store ptr %0, ptr %6, align 8
  store i64 %1, ptr %7, align 8
  store i32 %2, ptr %8, align 4
  store ptr %3, ptr %9, align 8
  %12 = load ptr, ptr %6, align 8
  %13 = getelementptr inbounds %struct._php_stream, ptr %12, i32 0, i32 1
  %14 = load ptr, ptr %13, align 8
  store ptr %14, ptr %10, align 8
  %15 = load ptr, ptr %10, align 8
  %16 = getelementptr inbounds %struct.php_stream_temp_data, ptr %15, i32 0, i32 0
  %17 = load ptr, ptr %16, align 8
  %18 = icmp ne ptr %17, null
  br i1 %18, label %21, label %19

19:                                               ; preds = %4
  %20 = load ptr, ptr %9, align 8
  store i64 -1, ptr %20, align 8
  store i32 -1, ptr %5, align 4
  br label %48

21:                                               ; preds = %4
  %22 = load ptr, ptr %10, align 8
  %23 = getelementptr inbounds %struct.php_stream_temp_data, ptr %22, i32 0, i32 0
  %24 = load ptr, ptr %23, align 8
  %25 = load i64, ptr %7, align 8
  %26 = load i32, ptr %8, align 4
  %27 = call i32 @_php_stream_seek(ptr noundef %24, i64 noundef %25, i32 noundef %26)
  store i32 %27, ptr %11, align 4
  %28 = load ptr, ptr %10, align 8
  %29 = getelementptr inbounds %struct.php_stream_temp_data, ptr %28, i32 0, i32 0
  %30 = load ptr, ptr %29, align 8
  %31 = call i64 @_php_stream_tell(ptr noundef %30)
  %32 = load ptr, ptr %9, align 8
  store i64 %31, ptr %32, align 8
  %33 = load ptr, ptr %10, align 8
  %34 = getelementptr inbounds %struct.php_stream_temp_data, ptr %33, i32 0, i32 0
  %35 = load ptr, ptr %34, align 8
  %36 = getelementptr inbounds %struct._php_stream, ptr %35, i32 0, i32 7
  %37 = load i16, ptr %36, align 8
  %38 = lshr i16 %37, 3
  %39 = and i16 %38, 1
  %40 = load ptr, ptr %6, align 8
  %41 = getelementptr inbounds %struct._php_stream, ptr %40, i32 0, i32 7
  %42 = load i16, ptr %41, align 8
  %43 = and i16 %39, 1
  %44 = shl i16 %43, 3
  %45 = and i16 %42, -9
  %46 = or i16 %45, %44
  store i16 %46, ptr %41, align 8
  %47 = load i32, ptr %11, align 4
  store i32 %47, ptr %5, align 4
  br label %48

48:                                               ; preds = %21, %19
  %49 = load i32, ptr %5, align 4
  ret i32 %49
}

; Function Attrs: nounwind uwtable
define ptr @_php_stream_temp_create(i32 noundef %0, i64 noundef %1) #0 {
  %3 = alloca i32, align 4
  %4 = alloca i64, align 8
  store i32 %0, ptr %3, align 4
  store i64 %1, ptr %4, align 8
  %5 = load i32, ptr %3, align 4
  %6 = load i64, ptr %4, align 8
  %7 = call ptr @_php_stream_temp_create_ex(i32 noundef %5, i64 noundef %6, ptr noundef null)
  ret ptr %7
}

; Function Attrs: nounwind uwtable
define ptr @_php_stream_temp_open(i32 noundef %0, i64 noundef %1, ptr noundef %2, i64 noundef %3) #0 {
  %5 = alloca i32, align 4
  %6 = alloca i64, align 8
  %7 = alloca ptr, align 8
  %8 = alloca i64, align 8
  %9 = alloca ptr, align 8
  %10 = alloca ptr, align 8
  %11 = alloca i64, align 8
  store i32 %0, ptr %5, align 4
  store i64 %1, ptr %6, align 8
  store ptr %2, ptr %7, align 8
  store i64 %3, ptr %8, align 8
  %12 = load i32, ptr %5, align 4
  %13 = load i64, ptr %6, align 8
  %14 = call ptr @_php_stream_temp_create(i32 noundef %12, i64 noundef %13)
  store ptr %14, ptr %9, align 8
  %15 = icmp ne ptr %14, null
  br i1 %15, label %16, label %33

16:                                               ; preds = %4
  %17 = load i64, ptr %8, align 8
  %18 = icmp ne i64 %17, 0
  br i1 %18, label %19, label %26

19:                                               ; preds = %16
  %20 = load ptr, ptr %9, align 8
  %21 = load ptr, ptr %7, align 8
  %22 = load i64, ptr %8, align 8
  %23 = call i64 @php_stream_temp_write(ptr noundef %20, ptr noundef %21, i64 noundef %22)
  %24 = load ptr, ptr %9, align 8
  %25 = call i32 @php_stream_temp_seek(ptr noundef %24, i64 noundef 0, i32 noundef 0, ptr noundef %11)
  br label %26

26:                                               ; preds = %19, %16
  %27 = load ptr, ptr %9, align 8
  %28 = getelementptr inbounds %struct._php_stream, ptr %27, i32 0, i32 1
  %29 = load ptr, ptr %28, align 8
  store ptr %29, ptr %10, align 8
  %30 = load i32, ptr %5, align 4
  %31 = load ptr, ptr %10, align 8
  %32 = getelementptr inbounds %struct.php_stream_temp_data, ptr %31, i32 0, i32 2
  store i32 %30, ptr %32, align 8
  br label %33

33:                                               ; preds = %26, %4
  %34 = load ptr, ptr %9, align 8
  ret ptr %34
}