; Function Attrs: nounwind uwtable
define ptr @_php_stream_temp_open(i32 noundef %0, i64 noundef %1, ptr noundef %2, i64 noundef %3) local_unnamed_addr #0 {
  %5 = tail call noalias dereferenceable_or_null(48) ptr @_ecalloc(i64 noundef 1, i64 noundef 48) #22
  %6 = getelementptr inbounds i8, ptr %5, i64 8
  store i64 %1, ptr %6, align 8
  %7 = getelementptr inbounds i8, ptr %5, i64 16
  store i32 %0, ptr %7, align 8
  %8 = getelementptr inbounds i8, ptr %5, i64 32
  store i32 0, ptr %8, align 8
  %switch.selectcmp.i.i.i = icmp eq i32 %0, 4
  %switch.select.i.i.i = select i1 %switch.selectcmp.i.i.i, ptr @.str.4, ptr @.str.5
  %switch.selectcmp3.i.i.i = icmp eq i32 %0, 1
  %switch.select4.i.i.i = select i1 %switch.selectcmp3.i.i.i, ptr @.str.3, ptr %switch.select.i.i.i
  %9 = tail call ptr @_php_stream_alloc(ptr noundef nonnull @php_stream_temp_ops, ptr noundef nonnull %5, ptr noundef null, ptr noundef nonnull %switch.select4.i.i.i) #20
  %10 = getelementptr inbounds i8, ptr %9, i64 116
  %11 = load i32, ptr %10, align 4
  %12 = or i32 %11, 2
  store i32 %12, ptr %10, align 4
  %13 = tail call noalias ptr @_emalloc_24() #20
  %14 = load ptr, ptr @zend_empty_string, align 8
  store ptr %14, ptr %13, align 8
  %15 = getelementptr inbounds i8, ptr %13, i64 8
  store i64 0, ptr %15, align 8
  %16 = getelementptr inbounds i8, ptr %13, i64 16
  store i32 %0, ptr %16, align 8
  %17 = tail call ptr @_php_stream_alloc(ptr noundef nonnull @php_stream_memory_ops, ptr noundef nonnull %13, ptr noundef null, ptr noundef nonnull %switch.select4.i.i.i) #20
  %18 = getelementptr inbounds i8, ptr %17, i64 116
  %19 = load i32, ptr %18, align 4
  %20 = or i32 %19, 2
  store i32 %20, ptr %18, align 4
  store ptr %17, ptr %5, align 8
  %21 = tail call ptr @php_stream_encloses(ptr noundef %9, ptr noundef %17) #20
  %.not11 = icmp eq i64 %3, 0
  br i1 %.not11, label %39, label %22

22:                                               ; preds = %4
  %23 = tail call i64 @php_stream_temp_write(ptr noundef nonnull %9, ptr noundef %2, i64 noundef %3)
  %24 = getelementptr inbounds i8, ptr %9, i64 8
  %25 = load ptr, ptr %24, align 8
  %26 = load ptr, ptr %25, align 8
  %.not.i = icmp eq ptr %26, null
  br i1 %.not.i, label %39, label %27

27:                                               ; preds = %22
  %28 = tail call i32 @_php_stream_seek(ptr noundef nonnull %26, i64 noundef 0, i32 noundef 0) #20
  %29 = load ptr, ptr %25, align 8
  %30 = tail call i64 @_php_stream_tell(ptr noundef %29) #20
  %31 = load ptr, ptr %25, align 8
  %32 = getelementptr inbounds i8, ptr %31, i64 96
  %33 = load i16, ptr %32, align 8
  %34 = and i16 %33, 8
  %35 = getelementptr inbounds i8, ptr %9, i64 96
  %36 = load i16, ptr %35, align 8
  %37 = and i16 %36, -9
  %38 = or disjoint i16 %37, %34
  store i16 %38, ptr %35, align 8
  br label %39

39:                                               ; preds = %4, %22, %27
  %40 = getelementptr inbounds i8, ptr %9, i64 8
  %41 = load ptr, ptr %40, align 8
  %42 = getelementptr inbounds i8, ptr %41, i64 16
  store i32 %0, ptr %42, align 8
  ret ptr %9
}